; Function Attrs: mustprogress nounwind uwtable
define hidden void @_ZN22SystemDictionaryShared20print_shared_archiveEP12outputStreamb(ptr noundef %0, i1 noundef zeroext %1) local_unnamed_addr #0 align 2 {
  %3 = tail call noundef zeroext i1 @_ZN9CDSConfig16is_using_archiveEv() #18
  br i1 %3, label %4, label %9

4:                                                ; preds = %2
  br i1 %1, label %5, label %6

5:                                                ; preds = %4
  tail call void @_ZN22SystemDictionaryShared11ArchiveInfo8print_onEPKcP12outputStream(ptr noundef nonnull align 8 dereferenceable(96) @_ZN22SystemDictionaryShared15_static_archiveE, ptr noundef nonnull @.str.64, ptr noundef %0)
  br label %9

6:                                                ; preds = %4
  %7 = load ptr, ptr @_ZN11FileMapInfo21_dynamic_archive_infoE, align 8
  %.not = icmp eq ptr %7, null
  br i1 %.not, label %9, label %8

8:                                                ; preds = %6
  tail call void @_ZN22SystemDictionaryShared11ArchiveInfo8print_onEPKcP12outputStream(ptr noundef nonnull align 8 dereferenceable(96) @_ZN22SystemDictionaryShared16_dynamic_archiveE, ptr noundef nonnull @.str.65, ptr noundef %0)
  br label %9

9:                                                ; preds = %5, %8, %6, %2
  ret void
}